target datalayout = "e-m:e-p270:32:32-p271:32:32-p272:64:64-i64:64-i128:128-f80:128-n8:16:32:64-S128"
target triple = "x86_64-pc-linux-gnu"

%struct.GetByteContext = type { ptr, ptr, ptr }

; Function Attrs: alwaysinline nounwind uwtable
define internal i32 @bytestream_get_le16(ptr noundef %0) #5 {
  %2 = alloca ptr, align 8
  store ptr %0, ptr %2, align 8, !tbaa !62
  %3 = load ptr, ptr %2, align 8, !tbaa !62
  %4 = load ptr, ptr %3, align 8, !tbaa !43
  %5 = getelementptr inbounds i8, ptr %4, i64 2
  store ptr %5, ptr %3, align 8, !tbaa !43
  %6 = load ptr, ptr %2, align 8, !tbaa !62
  %7 = load ptr, ptr %6, align 8, !tbaa !43
  %8 = getelementptr inbounds i8, ptr %7, i64 -2
  %9 = load i16, ptr %8, align 1, !tbaa !46
  %10 = zext i16 %9 to i32
  ret i32 %10
}

; Function Attrs: alwaysinline nounwind uwtable
define internal i32 @bytestream2_peek_byteu(ptr noundef %0) #5 {
  %2 = alloca ptr, align 8
  store ptr %0, ptr %2, align 8, !tbaa !56
  %3 = load ptr, ptr %2, align 8, !tbaa !56
  %4 = getelementptr inbounds nuw %struct.GetByteContext, ptr %3, i32 0, i32 0
  %5 = load ptr, ptr %4, align 8, !tbaa !58
  %6 = getelementptr inbounds i8, ptr %5, i64 0
  %7 = load i8, ptr %6, align 1, !tbaa !46
  %8 = zext i8 %7 to i32
  ret i32 %8
}

; Function Attrs: alwaysinline nounwind uwtable
define internal i32 @bytestream_get_byte(ptr noundef %0) #5 {
  %2 = alloca ptr, align 8
  store ptr %0, ptr %2, align 8, !tbaa !62
  %3 = load ptr, ptr %2, align 8, !tbaa !62
  %4 = load ptr, ptr %3, align 8, !tbaa !43
  %5 = getelementptr inbounds i8, ptr %4, i64 1
  store ptr %5, ptr %3, align 8, !tbaa !43
  %6 = load ptr, ptr %2, align 8, !tbaa !62
  %7 = load ptr, ptr %6, align 8, !tbaa !43
  %8 = getelementptr inbounds i8, ptr %7, i64 -1
  %9 = getelementptr inbounds i8, ptr %8, i64 0
  %10 = load i8, ptr %9, align 1, !tbaa !46
  %11 = zext i8 %10 to i32
  ret i32 %11
}

; Function Attrs: alwaysinline nounwind uwtable
define internal i32 @bytestream2_get_le16u(ptr noundef %0) #5 {
  %2 = alloca ptr, align 8
  store ptr %0, ptr %2, align 8, !tbaa !56
  %3 = load ptr, ptr %2, align 8, !tbaa !56
  %4 = getelementptr inbounds nuw %struct.GetByteContext, ptr %3, i32 0, i32 0
  %5 = call i32 @bytestream_get_le16(ptr noundef %4)
  ret i32 %5
}

; Function Attrs: alwaysinline nounwind uwtable
define internal i32 @bytestream2_get_buffer(ptr noundef %0, ptr noundef %1, i32 noundef %2) #5 {
  %4 = alloca ptr, align 8
  %5 = alloca ptr, align 8
  %6 = alloca i32, align 4
  %7 = alloca i32, align 4
  store ptr %0, ptr %4, align 8, !tbaa !56
  store ptr %1, ptr %5, align 8, !tbaa !43
  store i32 %2, ptr %6, align 4, !tbaa !47
  call void @llvm.lifetime.start.p0(i64 4, ptr %7) #8
  %8 = load ptr, ptr %4, align 8, !tbaa !56
  %9 = getelementptr inbounds nuw %struct.GetByteContext, ptr %8, i32 0, i32 1
  %10 = load ptr, ptr %9, align 8, !tbaa !61
  %11 = load ptr, ptr %4, align 8, !tbaa !56
  %12 = getelementptr inbounds nuw %struct.GetByteContext, ptr %11, i32 0, i32 0
  %13 = load ptr, ptr %12, align 8, !tbaa !58
  %14 = ptrtoint ptr %10 to i64
  %15 = ptrtoint ptr %13 to i64
  %16 = sub i64 %14, %15
  %17 = load i32, ptr %6, align 4, !tbaa !47
  %18 = zext i32 %17 to i64
  %19 = icmp sgt i64 %16, %18
  br i1 %19, label %20, label %23

20:                                               ; preds = %3
  %21 = load i32, ptr %6, align 4, !tbaa !47
  %22 = zext i32 %21 to i64
  br label %33

23:                                               ; preds = %3
  %24 = load ptr, ptr %4, align 8, !tbaa !56
  %25 = getelementptr inbounds nuw %struct.GetByteContext, ptr %24, i32 0, i32 1
  %26 = load ptr, ptr %25, align 8, !tbaa !61
  %27 = load ptr, ptr %4, align 8, !tbaa !56
  %28 = getelementptr inbounds nuw %struct.GetByteContext, ptr %27, i32 0, i32 0
  %29 = load ptr, ptr %28, align 8, !tbaa !58
  %30 = ptrtoint ptr %26 to i64
  %31 = ptrtoint ptr %29 to i64
  %32 = sub i64 %30, %31
  br label %33

33:                                               ; preds = %23, %20
  %34 = phi i64 [ %22, %20 ], [ %32, %23 ]
  %35 = trunc i64 %34 to i32
  store i32 %35, ptr %7, align 4, !tbaa !47
  %36 = load ptr, ptr %5, align 8, !tbaa !43
  %37 = load ptr, ptr %4, align 8, !tbaa !56
  %38 = getelementptr inbounds nuw %struct.GetByteContext, ptr %37, i32 0, i32 0
  %39 = load ptr, ptr %38, align 8, !tbaa !58
  %40 = load i32, ptr %7, align 4, !tbaa !47
  %41 = zext i32 %40 to i64
  call void @llvm.memcpy.p0.p0.i64(ptr align 1 %36, ptr align 1 %39, i64 %41, i1 false)
  %42 = load i32, ptr %7, align 4, !tbaa !47
  %43 = load ptr, ptr %4, align 8, !tbaa !56
  %44 = getelementptr inbounds nuw %struct.GetByteContext, ptr %43, i32 0, i32 0
  %45 = load ptr, ptr %44, align 8, !tbaa !58
  %46 = zext i32 %42 to i64
  %47 = getelementptr inbounds nuw i8, ptr %45, i64 %46
  store ptr %47, ptr %44, align 8, !tbaa !58
  %48 = load i32, ptr %7, align 4, !tbaa !47
  call void @llvm.lifetime.end.p0(i64 4, ptr %7) #8
  ret i32 %48
}

; Function Attrs: alwaysinline nounwind uwtable
define internal i32 @bytestream2_get_byte(ptr noundef %0) #5 {
  %2 = alloca i32, align 4
  %3 = alloca ptr, align 8
  store ptr %0, ptr %3, align 8, !tbaa !56
  %4 = load ptr, ptr %3, align 8, !tbaa !56
  %5 = getelementptr inbounds nuw %struct.GetByteContext, ptr %4, i32 0, i32 1
  %6 = load ptr, ptr %5, align 8, !tbaa !61
  %7 = load ptr, ptr %3, align 8, !tbaa !56
  %8 = getelementptr inbounds nuw %struct.GetByteContext, ptr %7, i32 0, i32 0
  %9 = load ptr, ptr %8, align 8, !tbaa !58
  %10 = ptrtoint ptr %6 to i64
  %11 = ptrtoint ptr %9 to i64
  %12 = sub i64 %10, %11
  %13 = icmp slt i64 %12, 1
  br i1 %13, label %14, label %20

14:                                               ; preds = %1
  %15 = load ptr, ptr %3, align 8, !tbaa !56
  %16 = getelementptr inbounds nuw %struct.GetByteContext, ptr %15, i32 0, i32 1
  %17 = load ptr, ptr %16, align 8, !tbaa !61
  %18 = load ptr, ptr %3, align 8, !tbaa !56
  %19 = getelementptr inbounds nuw %struct.GetByteContext, ptr %18, i32 0, i32 0
  store ptr %17, ptr %19, align 8, !tbaa !58
  store i32 0, ptr %2, align 4
  br label %23

20:                                               ; preds = %1
  %21 = load ptr, ptr %3, align 8, !tbaa !56
  %22 = call i32 @bytestream2_get_byteu(ptr noundef %21)
  store i32 %22, ptr %2, align 4
  br label %23

23:                                               ; preds = %20, %14
  %24 = load i32, ptr %2, align 4
  ret i32 %24
}

; Function Attrs: alwaysinline nounwind uwtable
define internal i32 @bytestream2_peek_byte(ptr noundef %0) #5 {
  %2 = alloca i32, align 4
  %3 = alloca ptr, align 8
  store ptr %0, ptr %3, align 8, !tbaa !56
  %4 = load ptr, ptr %3, align 8, !tbaa !56
  %5 = getelementptr inbounds nuw %struct.GetByteContext, ptr %4, i32 0, i32 1
  %6 = load ptr, ptr %5, align 8, !tbaa !61
  %7 = load ptr, ptr %3, align 8, !tbaa !56
  %8 = getelementptr inbounds nuw %struct.GetByteContext, ptr %7, i32 0, i32 0
  %9 = load ptr, ptr %8, align 8, !tbaa !58
  %10 = ptrtoint ptr %6 to i64
  %11 = ptrtoint ptr %9 to i64
  %12 = sub i64 %10, %11
  %13 = icmp slt i64 %12, 1
  br i1 %13, label %14, label %15

14:                                               ; preds = %1
  store i32 0, ptr %2, align 4
  br label %18

15:                                               ; preds = %1
  %16 = load ptr, ptr %3, align 8, !tbaa !56
  %17 = call i32 @bytestream2_peek_byteu(ptr noundef %16)
  store i32 %17, ptr %2, align 4
  br label %18

18:                                               ; preds = %15, %14
  %19 = load i32, ptr %2, align 4
  ret i32 %19
}

; Function Attrs: alwaysinline nounwind uwtable
define internal i32 @bytestream2_get_byteu(ptr noundef %0) #5 {
  %2 = alloca ptr, align 8
  store ptr %0, ptr %2, align 8, !tbaa !56
  %3 = load ptr, ptr %2, align 8, !tbaa !56
  %4 = getelementptr inbounds nuw %struct.GetByteContext, ptr %3, i32 0, i32 0
  %5 = call i32 @bytestream_get_byte(ptr noundef %4)
  ret i32 %5
}

; Function Attrs: alwaysinline nounwind uwtable
define internal i32 @bytestream2_get_bytes_left(ptr noundef %0) #5 {
  %2 = alloca ptr, align 8
  store ptr %0, ptr %2, align 8, !tbaa !56
  %3 = load ptr, ptr %2, align 8, !tbaa !56
  %4 = getelementptr inbounds nuw %struct.GetByteContext, ptr %3, i32 0, i32 1
  %5 = load ptr, ptr %4, align 8, !tbaa !61
  %6 = load ptr, ptr %2, align 8, !tbaa !56
  %7 = getelementptr inbounds nuw %struct.GetByteContext, ptr %6, i32 0, i32 0
  %8 = load ptr, ptr %7, align 8, !tbaa !58
  %9 = ptrtoint ptr %5 to i64
  %10 = ptrtoint ptr %8 to i64
  %11 = sub i64 %9, %10
  %12 = trunc i64 %11 to i32
  ret i32 %12
}

; Function Attrs: alwaysinline nounwind uwtable
define internal i32 @bytestream2_get_le16(ptr noundef %0) #5 {
  %2 = alloca i32, align 4
  %3 = alloca ptr, align 8
  store ptr %0, ptr %3, align 8, !tbaa !56
  %4 = load ptr, ptr %3, align 8, !tbaa !56
  %5 = getelementptr inbounds nuw %struct.GetByteContext, ptr %4, i32 0, i32 1
  %6 = load ptr, ptr %5, align 8, !tbaa !61
  %7 = load ptr, ptr %3, align 8, !tbaa !56
  %8 = getelementptr inbounds nuw %struct.GetByteContext, ptr %7, i32 0, i32 0
  %9 = load ptr, ptr %8, align 8, !tbaa !58
  %10 = ptrtoint ptr %6 to i64
  %11 = ptrtoint ptr %9 to i64
  %12 = sub i64 %10, %11
  %13 = icmp slt i64 %12, 2
  br i1 %13, label %14, label %20

14:                                               ; preds = %1
  %15 = load ptr, ptr %3, align 8, !tbaa !56
  %16 = getelementptr inbounds nuw %struct.GetByteContext, ptr %15, i32 0, i32 1
  %17 = load ptr, ptr %16, align 8, !tbaa !61
  %18 = load ptr, ptr %3, align 8, !tbaa !56
  %19 = getelementptr inbounds nuw %struct.GetByteContext, ptr %18, i32 0, i32 0
  store ptr %17, ptr %19, align 8, !tbaa !58
  store i32 0, ptr %2, align 4
  br label %23

20:                                               ; preds = %1
  %21 = load ptr, ptr %3, align 8, !tbaa !56
  %22 = call i32 @bytestream2_get_le16u(ptr noundef %21)
  store i32 %22, ptr %2, align 4
  br label %23

23:                                               ; preds = %20, %14
  %24 = load i32, ptr %2, align 4
  ret i32 %24
}

; Function Attrs: nounwind uwtable
define internal i32 @decode_bdlt(ptr noundef %0, ptr noundef %1, i32 noundef %2, i32 noundef %3) #1 {
  %5 = alloca i32, align 4
  %6 = alloca ptr, align 8
  %7 = alloca ptr, align 8
  %8 = alloca i32, align 4
  %9 = alloca i32, align 4
  %10 = alloca ptr, align 8
  %11 = alloca i32, align 4
  %12 = alloca i32, align 4
  %13 = alloca i32, align 4
  %14 = alloca i32, align 4
  store ptr %0, ptr %6, align 8, !tbaa !56
  store ptr %1, ptr %7, align 8, !tbaa !43
  store i32 %2, ptr %8, align 4, !tbaa !47
  store i32 %3, ptr %9, align 4, !tbaa !47
  call void @llvm.lifetime.start.p0(i64 8, ptr %10) #8
  call void @llvm.lifetime.start.p0(i64 4, ptr %11) #8
  call void @llvm.lifetime.start.p0(i64 4, ptr %12) #8
  call void @llvm.lifetime.start.p0(i64 4, ptr %13) #8
  %15 = load ptr, ptr %6, align 8, !tbaa !56
  %16 = call i32 @bytestream2_get_le16(ptr noundef %15)
  store i32 %16, ptr %11, align 4, !tbaa !47
  %17 = load i32, ptr %11, align 4, !tbaa !47
  %18 = load i32, ptr %9, align 4, !tbaa !47
  %19 = icmp sge i32 %17, %18
  br i1 %19, label %20, label %21

20:                                               ; preds = %4
  store i32 -1094995529, ptr %5, align 4
  store i32 1, ptr %14, align 4
  br label %126

21:                                               ; preds = %4
  %22 = load i32, ptr %8, align 4, !tbaa !47
  %23 = load i32, ptr %11, align 4, !tbaa !47
  %24 = mul nsw i32 %22, %23
  %25 = load ptr, ptr %7, align 8, !tbaa !43
  %26 = sext i32 %24 to i64
  %27 = getelementptr inbounds i8, ptr %25, i64 %26
  store ptr %27, ptr %7, align 8, !tbaa !43
  %28 = load ptr, ptr %6, align 8, !tbaa !56
  %29 = call i32 @bytestream2_get_le16(ptr noundef %28)
  store i32 %29, ptr %12, align 4, !tbaa !47
  %30 = load i32, ptr %11, align 4, !tbaa !47
  %31 = load i32, ptr %12, align 4, !tbaa !47
  %32 = add nsw i32 %30, %31
  %33 = load i32, ptr %9, align 4, !tbaa !47
  %34 = icmp sgt i32 %32, %33
  br i1 %34, label %35, label %36

35:                                               ; preds = %21
  store i32 -1094995529, ptr %5, align 4
  store i32 1, ptr %14, align 4
  br label %126

36:                                               ; preds = %21
  br label %37

37:                                               ; preds = %124, %36
  %38 = load i32, ptr %12, align 4, !tbaa !47
  %39 = add nsw i32 %38, -1
  store i32 %39, ptr %12, align 4, !tbaa !47
  %40 = icmp ne i32 %38, 0
  br i1 %40, label %41, label %125

41:                                               ; preds = %37
  %42 = load ptr, ptr %6, align 8, !tbaa !56
  %43 = call i32 @bytestream2_get_bytes_left(ptr noundef %42)
  %44 = icmp slt i32 %43, 1
  br i1 %44, label %45, label %46

45:                                               ; preds = %41
  store i32 -1094995529, ptr %5, align 4
  store i32 1, ptr %14, align 4
  br label %126

46:                                               ; preds = %41
  %47 = load ptr, ptr %7, align 8, !tbaa !43
  store ptr %47, ptr %10, align 8, !tbaa !43
  %48 = load i32, ptr %8, align 4, !tbaa !47
  %49 = load ptr, ptr %7, align 8, !tbaa !43
  %50 = sext i32 %48 to i64
  %51 = getelementptr inbounds i8, ptr %49, i64 %50
  store ptr %51, ptr %7, align 8, !tbaa !43
  %52 = load ptr, ptr %6, align 8, !tbaa !56
  %53 = call i32 @bytestream2_get_byteu(ptr noundef %52)
  store i32 %53, ptr %13, align 4, !tbaa !47
  br label %54

54:                                               ; preds = %119, %46
  %55 = load i32, ptr %13, align 4, !tbaa !47
  %56 = add nsw i32 %55, -1
  store i32 %56, ptr %13, align 4, !tbaa !47
  %57 = icmp ne i32 %55, 0
  br i1 %57, label %58, label %124

58:                                               ; preds = %54
  %59 = load ptr, ptr %7, align 8, !tbaa !43
  %60 = load ptr, ptr %10, align 8, !tbaa !43
  %61 = ptrtoint ptr %59 to i64
  %62 = ptrtoint ptr %60 to i64
  %63 = sub i64 %61, %62
  %64 = load ptr, ptr %6, align 8, !tbaa !56
  %65 = call i32 @bytestream2_peek_byte(ptr noundef %64)
  %66 = zext i32 %65 to i64
  %67 = icmp sle i64 %63, %66
  br i1 %67, label %68, label %69

68:                                               ; preds = %58
  store i32 -1094995529, ptr %5, align 4
  store i32 1, ptr %14, align 4
  br label %126

69:                                               ; preds = %58
  %70 = load ptr, ptr %6, align 8, !tbaa !56
  %71 = call i32 @bytestream2_get_byte(ptr noundef %70)
  %72 = load ptr, ptr %10, align 8, !tbaa !43
  %73 = zext i32 %71 to i64
  %74 = getelementptr inbounds nuw i8, ptr %72, i64 %73
  store ptr %74, ptr %10, align 8, !tbaa !43
  %75 = load ptr, ptr %6, align 8, !tbaa !56
  %76 = call i32 @bytestream2_get_byte(ptr noundef %75)
  %77 = trunc i32 %76 to i8
  %78 = sext i8 %77 to i32
  store i32 %78, ptr %11, align 4, !tbaa !47
  %79 = load i32, ptr %11, align 4, !tbaa !47
  %80 = icmp sge i32 %79, 0
  br i1 %80, label %81, label %100

81:                                               ; preds = %69
  %82 = load ptr, ptr %7, align 8, !tbaa !43
  %83 = load ptr, ptr %10, align 8, !tbaa !43
  %84 = ptrtoint ptr %82 to i64
  %85 = ptrtoint ptr %83 to i64
  %86 = sub i64 %84, %85
  %87 = load i32, ptr %11, align 4, !tbaa !47
  %88 = sext i32 %87 to i64
  %89 = icmp slt i64 %86, %88
  br i1 %89, label %90, label %91

90:                                               ; preds = %81
  store i32 -1094995529, ptr %5, align 4
  store i32 1, ptr %14, align 4
  br label %126

91:                                               ; preds = %81
  %92 = load ptr, ptr %6, align 8, !tbaa !56
  %93 = load ptr, ptr %10, align 8, !tbaa !43
  %94 = load i32, ptr %11, align 4, !tbaa !47
  %95 = call i32 @bytestream2_get_buffer(ptr noundef %92, ptr noundef %93, i32 noundef %94)
  %96 = load i32, ptr %11, align 4, !tbaa !47
  %97 = icmp ne i32 %95, %96
  br i1 %97, label %98, label %99

98:                                               ; preds = %91
  store i32 -1094995529, ptr %5, align 4
  store i32 1, ptr %14, align 4
  br label %126

99:                                               ; preds = %91
  br label %119

100:                                              ; preds = %69
  %101 = load i32, ptr %11, align 4, !tbaa !47
  %102 = sub nsw i32 0, %101
  store i32 %102, ptr %11, align 4, !tbaa !47
  %103 = load ptr, ptr %7, align 8, !tbaa !43
  %104 = load ptr, ptr %10, align 8, !tbaa !43
  %105 = ptrtoint ptr %103 to i64
  %106 = ptrtoint ptr %104 to i64
  %107 = sub i64 %105, %106
  %108 = load i32, ptr %11, align 4, !tbaa !47
  %109 = sext i32 %108 to i64
  %110 = icmp slt i64 %107, %109
  br i1 %110, label %111, label %112

111:                                              ; preds = %100
  store i32 -1094995529, ptr %5, align 4
  store i32 1, ptr %14, align 4
  br label %126

112:                                              ; preds = %100
  %113 = load ptr, ptr %10, align 8, !tbaa !43
  %114 = load ptr, ptr %6, align 8, !tbaa !56
  %115 = call i32 @bytestream2_get_byte(ptr noundef %114)
  %116 = trunc i32 %115 to i8
  %117 = load i32, ptr %11, align 4, !tbaa !47
  %118 = sext i32 %117 to i64
  call void @llvm.memset.p0.i64(ptr align 1 %113, i8 %116, i64 %118, i1 false)
  br label %119

119:                                              ; preds = %112, %99
  %120 = load i32, ptr %11, align 4, !tbaa !47
  %121 = load ptr, ptr %10, align 8, !tbaa !43
  %122 = sext i32 %120 to i64
  %123 = getelementptr inbounds i8, ptr %121, i64 %122
  store ptr %123, ptr %10, align 8, !tbaa !43
  br label %54, !llvm.loop !65

124:                                              ; preds = %54
  br label %37, !llvm.loop !66

125:                                              ; preds = %37
  store i32 0, ptr %5, align 4
  store i32 1, ptr %14, align 4
  br label %126

126:                                              ; preds = %125, %111, %98, %90, %68, %45, %35, %20
  call void @llvm.lifetime.end.p0(i64 4, ptr %13) #8
  call void @llvm.lifetime.end.p0(i64 4, ptr %12) #8
  call void @llvm.lifetime.end.p0(i64 4, ptr %11) #8
  call void @llvm.lifetime.end.p0(i64 8, ptr %10) #8
  %127 = load i32, ptr %5, align 4
  ret i32 %127
}