; Function Attrs: nofree norecurse nosync nounwind memory(readwrite, inaccessiblemem: none) uwtable
define internal range(i32 -1094995529, 1) i32 @decode_bdlt(ptr noundef captures(none) %0, ptr noundef %1, i32 noundef %2, i32 noundef %3) #7 {
  %5 = getelementptr inbounds nuw i8, ptr %0, i64 8
  %6 = load ptr, ptr %5, align 8, !tbaa !41
  %7 = load ptr, ptr %0, align 8, !tbaa !38
  %8 = ptrtoint ptr %6 to i64
  %9 = ptrtoint ptr %7 to i64
  %10 = sub i64 %8, %9
  %11 = icmp slt i64 %10, 2
  br i1 %11, label %12, label %13

12:                                               ; preds = %4
  store ptr %6, ptr %0, align 8, !tbaa !38
  br label %bytestream2_get_le16.exit

13:                                               ; preds = %4
  %14 = getelementptr inbounds nuw i8, ptr %7, i64 2
  store ptr %14, ptr %0, align 8, !tbaa !42
  %15 = load i16, ptr %7, align 1, !tbaa !34
  %16 = zext i16 %15 to i32
  br label %bytestream2_get_le16.exit

bytestream2_get_le16.exit:                        ; preds = %12, %13
  %17 = phi ptr [ %6, %12 ], [ %14, %13 ]
  %.0.i = phi i32 [ 0, %12 ], [ %16, %13 ]
  %.not = icmp slt i32 %.0.i, %3
  br i1 %.not, label %18, label %.loopexit65

18:                                               ; preds = %bytestream2_get_le16.exit
  %19 = mul nsw i32 %.0.i, %2
  %20 = sext i32 %19 to i64
  %21 = getelementptr inbounds i8, ptr %1, i64 %20
  %22 = ptrtoint ptr %17 to i64
  %23 = sub i64 %8, %22
  %24 = icmp slt i64 %23, 2
  br i1 %24, label %.preheader.thread, label %bytestream2_get_le16.exit54

bytestream2_get_le16.exit54:                      ; preds = %18
  %25 = getelementptr inbounds nuw i8, ptr %17, i64 2
  store ptr %25, ptr %0, align 8, !tbaa !42
  %26 = load i16, ptr %17, align 1, !tbaa !34
  %27 = zext i16 %26 to i32
  %28 = add nuw nsw i32 %.0.i, %27
  %29 = icmp samesign ugt i32 %28, %3
  br i1 %29, label %.loopexit65, label %.preheader

.preheader.thread:                                ; preds = %18
  store ptr %6, ptr %0, align 8, !tbaa !38
  br label %.loopexit65

.preheader:                                       ; preds = %bytestream2_get_le16.exit54
  %.not4969 = icmp eq i16 %26, 0
  br i1 %.not4969, label %.loopexit65, label %.lr.ph71

.lr.ph71:                                         ; preds = %.preheader
  %30 = sext i32 %2 to i64
  br label %31

.loopexit:                                        ; preds = %99, %40
  %.not49 = icmp eq i32 %32, 0
  br i1 %.not49, label %.loopexit65, label %31, !llvm.loop !52

31:                                               ; preds = %.lr.ph71, %.loopexit
  %.in = phi i32 [ %27, %.lr.ph71 ], [ %32, %.loopexit ]
  %.04470 = phi ptr [ %21, %.lr.ph71 ], [ %41, %.loopexit ]
  %32 = add nsw i32 %.in, -1
  %33 = load ptr, ptr %5, align 8, !tbaa !41
  %34 = load ptr, ptr %0, align 8, !tbaa !38
  %35 = ptrtoint ptr %33 to i64
  %36 = ptrtoint ptr %34 to i64
  %37 = sub i64 %35, %36
  %38 = trunc i64 %37 to i32
  %39 = icmp slt i32 %38, 1
  br i1 %39, label %.loopexit65, label %40

40:                                               ; preds = %31
  %41 = getelementptr inbounds i8, ptr %.04470, i64 %30
  %42 = getelementptr inbounds nuw i8, ptr %34, i64 1
  store ptr %42, ptr %0, align 8, !tbaa !42
  %43 = load i8, ptr %34, align 1, !tbaa !34
  %.not5067 = icmp eq i8 %43, 0
  br i1 %.not5067, label %.loopexit, label %.lr.ph

.lr.ph:                                           ; preds = %40
  %44 = zext i8 %43 to i32
  %45 = ptrtoint ptr %41 to i64
  br label %46

46:                                               ; preds = %.lr.ph, %99
  %.in74 = phi i32 [ %44, %.lr.ph ], [ %47, %99 ]
  %.04268 = phi ptr [ %.04470, %.lr.ph ], [ %100, %99 ]
  %47 = add nsw i32 %.in74, -1
  %48 = ptrtoint ptr %.04268 to i64
  %49 = sub i64 %45, %48
  %50 = load ptr, ptr %5, align 8, !tbaa !41
  %51 = load ptr, ptr %0, align 8, !tbaa !38
  %52 = ptrtoint ptr %50 to i64
  %53 = ptrtoint ptr %51 to i64
  %54 = sub i64 %52, %53
  %55 = icmp slt i64 %54, 1
  br i1 %55, label %bytestream2_peek_byte.exit, label %bytestream2_peek_byte.exit.thread

bytestream2_peek_byte.exit:                       ; preds = %46
  %.not51 = icmp sgt i64 %49, 0
  br i1 %.not51, label %bytestream2_get_byte.exit, label %.loopexit65

bytestream2_peek_byte.exit.thread:                ; preds = %46
  %56 = load i8, ptr %51, align 1, !tbaa !34
  %57 = zext i8 %56 to i64
  %.not5162 = icmp sgt i64 %49, %57
  br i1 %.not5162, label %58, label %.loopexit65

58:                                               ; preds = %bytestream2_peek_byte.exit.thread
  %59 = getelementptr inbounds nuw i8, ptr %51, i64 1
  store ptr %59, ptr %0, align 8, !tbaa !42
  %60 = load i8, ptr %51, align 1, !tbaa !34
  %61 = zext i8 %60 to i64
  %.pre = ptrtoint ptr %59 to i64
  br label %bytestream2_get_byte.exit

bytestream2_get_byte.exit:                        ; preds = %bytestream2_peek_byte.exit, %58
  %.pre-phi = phi i64 [ %.pre, %58 ], [ %52, %bytestream2_peek_byte.exit ]
  %62 = phi ptr [ %59, %58 ], [ %50, %bytestream2_peek_byte.exit ]
  %.0.i55 = phi i64 [ %61, %58 ], [ 0, %bytestream2_peek_byte.exit ]
  %63 = getelementptr inbounds nuw i8, ptr %.04268, i64 %.0.i55
  %64 = sub i64 %52, %.pre-phi
  %65 = icmp slt i64 %64, 1
  br i1 %65, label %bytestream2_get_byte.exit57.thread, label %bytestream2_get_byte.exit57

bytestream2_get_byte.exit57.thread:               ; preds = %bytestream2_get_byte.exit
  store ptr %50, ptr %0, align 8, !tbaa !38
  br label %70

bytestream2_get_byte.exit57:                      ; preds = %bytestream2_get_byte.exit
  %66 = getelementptr inbounds nuw i8, ptr %62, i64 1
  store ptr %66, ptr %0, align 8, !tbaa !42
  %67 = load i8, ptr %62, align 1, !tbaa !34
  %68 = sext i8 %67 to i32
  %69 = icmp sgt i8 %67, -1
  br i1 %69, label %70, label %85

70:                                               ; preds = %bytestream2_get_byte.exit57.thread, %bytestream2_get_byte.exit57
  %71 = phi ptr [ %50, %bytestream2_get_byte.exit57.thread ], [ %66, %bytestream2_get_byte.exit57 ]
  %72 = phi i32 [ 0, %bytestream2_get_byte.exit57.thread ], [ %68, %bytestream2_get_byte.exit57 ]
  %73 = ptrtoint ptr %63 to i64
  %74 = sub i64 %45, %73
  %75 = zext nneg i32 %72 to i64
  %76 = icmp slt i64 %74, %75
  br i1 %76, label %.loopexit65, label %77

77:                                               ; preds = %70
  %78 = ptrtoint ptr %71 to i64
  %79 = sub i64 %52, %78
  %80 = tail call i64 @llvm.smin.i64(i64 %79, i64 %75)
  %81 = trunc i64 %80 to i32
  %82 = and i64 %80, 4294967295
  tail call void @llvm.memcpy.p0.p0.i64(ptr align 1 %63, ptr align 1 %71, i64 %82, i1 false)
  %83 = load ptr, ptr %0, align 8, !tbaa !38
  %84 = getelementptr inbounds nuw i8, ptr %83, i64 %82
  store ptr %84, ptr %0, align 8, !tbaa !38
  %.not52 = icmp eq i32 %72, %81
  br i1 %.not52, label %99, label %.loopexit65

85:                                               ; preds = %bytestream2_get_byte.exit57
  %86 = sub nsw i32 0, %68
  %87 = ptrtoint ptr %63 to i64
  %88 = sub i64 %45, %87
  %89 = zext nneg i32 %86 to i64
  %90 = icmp slt i64 %88, %89
  br i1 %90, label %.loopexit65, label %91

91:                                               ; preds = %85
  %92 = ptrtoint ptr %66 to i64
  %93 = sub i64 %52, %92
  %94 = icmp slt i64 %93, 1
  br i1 %94, label %95, label %96

95:                                               ; preds = %91
  store ptr %50, ptr %0, align 8, !tbaa !38
  br label %bytestream2_get_byte.exit59

96:                                               ; preds = %91
  %97 = getelementptr inbounds nuw i8, ptr %62, i64 2
  store ptr %97, ptr %0, align 8, !tbaa !42
  %98 = load i8, ptr %66, align 1, !tbaa !34
  br label %bytestream2_get_byte.exit59

bytestream2_get_byte.exit59:                      ; preds = %95, %96
  %.0.i58 = phi i8 [ 0, %95 ], [ %98, %96 ]
  tail call void @llvm.memset.p0.i64(ptr align 1 %63, i8 %.0.i58, i64 %89, i1 false)
  br label %99

99:                                               ; preds = %77, %bytestream2_get_byte.exit59
  %.pre-phi76 = phi i64 [ %75, %77 ], [ %89, %bytestream2_get_byte.exit59 ]
  %100 = getelementptr inbounds nuw i8, ptr %63, i64 %.pre-phi76
  %.not50 = icmp eq i32 %47, 0
  br i1 %.not50, label %.loopexit, label %46, !llvm.loop !53

.loopexit65:                                      ; preds = %31, %.loopexit, %bytestream2_peek_byte.exit.thread, %85, %77, %70, %bytestream2_peek_byte.exit, %.preheader.thread, %.preheader, %bytestream2_get_le16.exit54, %bytestream2_get_le16.exit
  %.043 = phi i32 [ -1094995529, %bytestream2_get_le16.exit ], [ -1094995529, %bytestream2_get_le16.exit54 ], [ 0, %.preheader ], [ 0, %.preheader.thread ], [ -1094995529, %bytestream2_peek_byte.exit ], [ -1094995529, %70 ], [ -1094995529, %77 ], [ -1094995529, %85 ], [ -1094995529, %bytestream2_peek_byte.exit.thread ], [ -1094995529, %31 ], [ 0, %.loopexit ]
  ret i32 %.043
}